; ModuleID = '17/1261.c'
source_filename = "17/1261.c"
target datalayout = "e-m:e-p270:32:32-p271:32:32-p272:64:64-i64:64-f80:128-n8:16:32:64-S128"
target triple = "x86_64-pc-linux-gnu"

@.str = private unnamed_addr constant [3 x i8] c"%s\00", align 1
@.str.1 = private unnamed_addr constant [4 x i8] c"%s\0A\00", align 1
@.str.2 = private unnamed_addr constant [3 x i8] c"%c\00", align 1
@.str.3 = private unnamed_addr constant [2 x i8] c"\0A\00", align 1

; Function Attrs: noinline nounwind uwtable
define dso_local i32 @main() #0 {
  %1 = alloca i32, align 4
  %2 = alloca [101 x i8], align 16
  %3 = alloca [101 x i8], align 16
  %4 = alloca [100 x i32], align 16
  %5 = alloca i32, align 4
  %6 = alloca i32, align 4
  %7 = alloca i32, align 4
  %8 = alloca i32, align 4
  %9 = alloca i32, align 4
  %10 = alloca i32, align 4
  store i32 0, i32* %1, align 4
  br label %11

11:                                               ; preds = %0, %223
  store i32 0, i32* %6, align 4
  br label %12

12:                                               ; preds = %19, %11
  %13 = load i32, i32* %6, align 4
  %14 = icmp sle i32 %13, 99
  br i1 %14, label %15, label %22

15:                                               ; preds = %12
  %16 = load i32, i32* %6, align 4
  %17 = sext i32 %16 to i64
  %18 = getelementptr inbounds [100 x i32], [100 x i32]* %4, i64 0, i64 %17
  store i32 0, i32* %18, align 4
  br label %19

19:                                               ; preds = %15
  %20 = load i32, i32* %6, align 4
  %21 = add nsw i32 %20, 1
  store i32 %21, i32* %6, align 4
  br label %12

22:                                               ; preds = %12
  store i32 0, i32* %5, align 4
  %23 = getelementptr inbounds [101 x i8], [101 x i8]* %2, i64 0, i64 0
  %24 = call i32 (i8*, ...) @__isoc99_scanf(i8* getelementptr inbounds ([3 x i8], [3 x i8]* @.str, i64 0, i64 0), i8* %23)
  %25 = getelementptr inbounds [101 x i8], [101 x i8]* %2, i64 0, i64 0
  %26 = load i8, i8* %25, align 16
  %27 = sext i8 %26 to i32
  %28 = icmp eq i32 %27, 0
  br i1 %28, label %29, label %30

29:                                               ; preds = %22
  br label %226

30:                                               ; preds = %22
  %31 = getelementptr inbounds [101 x i8], [101 x i8]* %3, i64 0, i64 0
  %32 = getelementptr inbounds [101 x i8], [101 x i8]* %2, i64 0, i64 0
  %33 = call i8* @strcpy(i8* %31, i8* %32) #4
  %34 = getelementptr inbounds [101 x i8], [101 x i8]* %2, i64 0, i64 0
  %35 = call i64 @strlen(i8* %34) #5
  %36 = trunc i64 %35 to i32
  store i32 %36, i32* %7, align 4
  store i32 0, i32* %6, align 4
  br label %37

37:                                               ; preds = %55, %30
  %38 = load i32, i32* %6, align 4
  %39 = load i32, i32* %7, align 4
  %40 = sub nsw i32 %39, 1
  %41 = icmp sle i32 %38, %40
  br i1 %41, label %42, label %58

42:                                               ; preds = %37
  %43 = load i32, i32* %6, align 4
  %44 = sext i32 %43 to i64
  %45 = getelementptr inbounds [101 x i8], [101 x i8]* %2, i64 0, i64 %44
  %46 = load i8, i8* %45, align 1
  %47 = sext i8 %46 to i32
  %48 = icmp eq i32 %47, 40
  br i1 %48, label %49, label %54

49:                                               ; preds = %42
  %50 = load i32, i32* %6, align 4
  %51 = load i32, i32* %5, align 4
  %52 = sext i32 %51 to i64
  %53 = getelementptr inbounds [100 x i32], [100 x i32]* %4, i64 0, i64 %52
  store i32 %50, i32* %53, align 4
  br label %58

54:                                               ; preds = %42
  br label %55

55:                                               ; preds = %54
  %56 = load i32, i32* %6, align 4
  %57 = add nsw i32 %56, 1
  store i32 %57, i32* %6, align 4
  br label %37

58:                                               ; preds = %49, %37
  %59 = load i32, i32* %6, align 4
  %60 = load i32, i32* %7, align 4
  %61 = icmp eq i32 %59, %60
  br i1 %61, label %62, label %63

62:                                               ; preds = %58
  br label %113

63:                                               ; preds = %58
  store i32 1, i32* %5, align 4
  %64 = getelementptr inbounds [100 x i32], [100 x i32]* %4, i64 0, i64 0
  %65 = load i32, i32* %64, align 16
  %66 = add nsw i32 %65, 1
  store i32 %66, i32* %6, align 4
  br label %67

67:                                               ; preds = %109, %63
  %68 = load i32, i32* %6, align 4
  %69 = load i32, i32* %7, align 4
  %70 = sub nsw i32 %69, 1
  %71 = icmp sle i32 %68, %70
  br i1 %71, label %72, label %112

72:                                               ; preds = %67
  %73 = load i32, i32* %6, align 4
  %74 = sext i32 %73 to i64
  %75 = getelementptr inbounds [101 x i8], [101 x i8]* %2, i64 0, i64 %74
  %76 = load i8, i8* %75, align 1
  %77 = sext i8 %76 to i32
  %78 = icmp eq i32 %77, 40
  br i1 %78, label %79, label %85

79:                                               ; preds = %72
  %80 = load i32, i32* %6, align 4
  %81 = load i32, i32* %5, align 4
  %82 = add nsw i32 %81, 1
  store i32 %82, i32* %5, align 4
  %83 = sext i32 %81 to i64
  %84 = getelementptr inbounds [100 x i32], [100 x i32]* %4, i64 0, i64 %83
  store i32 %80, i32* %84, align 4
  br label %108

85:                                               ; preds = %72
  %86 = load i32, i32* %6, align 4
  %87 = sext i32 %86 to i64
  %88 = getelementptr inbounds [101 x i8], [101 x i8]* %2, i64 0, i64 %87
  %89 = load i8, i8* %88, align 1
  %90 = sext i8 %89 to i32
  %91 = icmp eq i32 %90, 41
  br i1 %91, label %92, label %107

92:                                               ; preds = %85
  %93 = load i32, i32* %5, align 4
  %94 = icmp sgt i32 %93, 0
  br i1 %94, label %95, label %106

95:                                               ; preds = %92
  %96 = load i32, i32* %5, align 4
  %97 = add nsw i32 %96, -1
  store i32 %97, i32* %5, align 4
  %98 = sext i32 %97 to i64
  %99 = getelementptr inbounds [100 x i32], [100 x i32]* %4, i64 0, i64 %98
  %100 = load i32, i32* %99, align 4
  %101 = sext i32 %100 to i64
  %102 = getelementptr inbounds [101 x i8], [101 x i8]* %3, i64 0, i64 %101
  store i8 32, i8* %102, align 1
  %103 = load i32, i32* %6, align 4
  %104 = sext i32 %103 to i64
  %105 = getelementptr inbounds [101 x i8], [101 x i8]* %3, i64 0, i64 %104
  store i8 32, i8* %105, align 1
  br label %106

106:                                              ; preds = %95, %92
  br label %107

107:                                              ; preds = %106, %85
  br label %108

108:                                              ; preds = %107, %79
  br label %109

109:                                              ; preds = %108
  %110 = load i32, i32* %6, align 4
  %111 = add nsw i32 %110, 1
  store i32 %111, i32* %6, align 4
  br label %67

112:                                              ; preds = %67
  br label %113

113:                                              ; preds = %112, %62
  store i32 0, i32* %6, align 4
  br label %114

114:                                              ; preds = %156, %113
  %115 = load i32, i32* %6, align 4
  %116 = load i32, i32* %7, align 4
  %117 = sub nsw i32 %116, 1
  %118 = icmp sle i32 %115, %117
  br i1 %118, label %119, label %159

119:                                              ; preds = %114
  %120 = load i32, i32* %6, align 4
  %121 = sext i32 %120 to i64
  %122 = getelementptr inbounds [101 x i8], [101 x i8]* %3, i64 0, i64 %121
  %123 = load i8, i8* %122, align 1
  %124 = sext i8 %123 to i32
  %125 = icmp eq i32 %124, 40
  br i1 %125, label %126, label %130

126:                                              ; preds = %119
  %127 = load i32, i32* %6, align 4
  %128 = sext i32 %127 to i64
  %129 = getelementptr inbounds [101 x i8], [101 x i8]* %3, i64 0, i64 %128
  store i8 36, i8* %129, align 1
  br label %155

130:                                              ; preds = %119
  %131 = load i32, i32* %6, align 4
  %132 = sext i32 %131 to i64
  %133 = getelementptr inbounds [101 x i8], [101 x i8]* %3, i64 0, i64 %132
  %134 = load i8, i8* %133, align 1
  %135 = sext i8 %134 to i32
  %136 = icmp eq i32 %135, 41
  br i1 %136, label %137, label %141

137:                                              ; preds = %130
  %138 = load i32, i32* %6, align 4
  %139 = sext i32 %138 to i64
  %140 = getelementptr inbounds [101 x i8], [101 x i8]* %3, i64 0, i64 %139
  store i8 63, i8* %140, align 1
  br label %154

141:                                              ; preds = %130
  %142 = load i32, i32* %6, align 4
  %143 = sext i32 %142 to i64
  %144 = getelementptr inbounds [101 x i8], [101 x i8]* %3, i64 0, i64 %143
  %145 = load i8, i8* %144, align 1
  %146 = sext i8 %145 to i32
  %147 = icmp eq i32 %146, 32
  br i1 %147, label %148, label %149

148:                                              ; preds = %141
  br label %153

149:                                              ; preds = %141
  %150 = load i32, i32* %6, align 4
  %151 = sext i32 %150 to i64
  %152 = getelementptr inbounds [101 x i8], [101 x i8]* %3, i64 0, i64 %151
  store i8 32, i8* %152, align 1
  br label %153

153:                                              ; preds = %149, %148
  br label %154

154:                                              ; preds = %153, %137
  br label %155

155:                                              ; preds = %154, %126
  br label %156

156:                                              ; preds = %155
  %157 = load i32, i32* %6, align 4
  %158 = add nsw i32 %157, 1
  store i32 %158, i32* %6, align 4
  br label %114

159:                                              ; preds = %114
  %160 = getelementptr inbounds [101 x i8], [101 x i8]* %2, i64 0, i64 0
  %161 = call i32 (i8*, ...) @printf(i8* getelementptr inbounds ([4 x i8], [4 x i8]* @.str.1, i64 0, i64 0), i8* %160)
  %162 = load i32, i32* %7, align 4
  %163 = sub nsw i32 %162, 1
  store i32 %163, i32* %9, align 4
  %164 = load i32, i32* %7, align 4
  %165 = sub nsw i32 %164, 1
  store i32 %165, i32* %6, align 4
  br label %166

166:                                              ; preds = %181, %159
  %167 = load i32, i32* %6, align 4
  %168 = icmp sge i32 %167, 0
  br i1 %168, label %169, label %184

169:                                              ; preds = %166
  %170 = load i32, i32* %6, align 4
  %171 = sext i32 %170 to i64
  %172 = getelementptr inbounds [101 x i8], [101 x i8]* %3, i64 0, i64 %171
  %173 = load i8, i8* %172, align 1
  %174 = sext i8 %173 to i32
  %175 = icmp eq i32 %174, 32
  br i1 %175, label %176, label %179

176:                                              ; preds = %169
  %177 = load i32, i32* %6, align 4
  %178 = sub nsw i32 %177, 1
  store i32 %178, i32* %9, align 4
  br label %180

179:                                              ; preds = %169
  br label %184

180:                                              ; preds = %176
  br label %181

181:                                              ; preds = %180
  %182 = load i32, i32* %6, align 4
  %183 = add nsw i32 %182, -1
  store i32 %183, i32* %6, align 4
  br label %166

184:                                              ; preds = %179, %166
  store i32 0, i32* %8, align 4
  store i32 0, i32* %6, align 4
  br label %185

185:                                              ; preds = %202, %184
  %186 = load i32, i32* %6, align 4
  %187 = load i32, i32* %7, align 4
  %188 = sub nsw i32 %187, 1
  %189 = icmp sle i32 %186, %188
  br i1 %189, label %190, label %205

190:                                              ; preds = %185
  %191 = load i32, i32* %6, align 4
  %192 = sext i32 %191 to i64
  %193 = getelementptr inbounds [101 x i8], [101 x i8]* %3, i64 0, i64 %192
  %194 = load i8, i8* %193, align 1
  %195 = sext i8 %194 to i32
  %196 = icmp eq i32 %195, 32
  br i1 %196, label %197, label %200

197:                                              ; preds = %190
  %198 = load i32, i32* %6, align 4
  %199 = add nsw i32 %198, 1
  store i32 %199, i32* %8, align 4
  br label %201

200:                                              ; preds = %190
  br label %205

201:                                              ; preds = %197
  br label %202

202:                                              ; preds = %201
  %203 = load i32, i32* %6, align 4
  %204 = add nsw i32 %203, 1
  store i32 %204, i32* %6, align 4
  br label %185

205:                                              ; preds = %200, %185
  store i32 0, i32* %10, align 4
  %206 = load i32, i32* %8, align 4
  store i32 %206, i32* %6, align 4
  br label %207

207:                                              ; preds = %220, %205
  %208 = load i32, i32* %6, align 4
  %209 = load i32, i32* %9, align 4
  %210 = icmp sle i32 %208, %209
  br i1 %210, label %211, label %223

211:                                              ; preds = %207
  %212 = load i32, i32* %6, align 4
  %213 = sext i32 %212 to i64
  %214 = getelementptr inbounds [101 x i8], [101 x i8]* %3, i64 0, i64 %213
  %215 = load i8, i8* %214, align 1
  %216 = sext i8 %215 to i32
  %217 = call i32 (i8*, ...) @printf(i8* getelementptr inbounds ([3 x i8], [3 x i8]* @.str.2, i64 0, i64 0), i32 %216)
  %218 = load i32, i32* %10, align 4
  %219 = add nsw i32 %218, 1
  store i32 %219, i32* %10, align 4
  br label %220

220:                                              ; preds = %211
  %221 = load i32, i32* %6, align 4
  %222 = add nsw i32 %221, 1
  store i32 %222, i32* %6, align 4
  br label %207

223:                                              ; preds = %207
  %224 = call i32 (i8*, ...) @printf(i8* getelementptr inbounds ([2 x i8], [2 x i8]* @.str.3, i64 0, i64 0))
  %225 = getelementptr inbounds [101 x i8], [101 x i8]* %2, i64 0, i64 0
  store i8 0, i8* %225, align 16
  br label %11

226:                                              ; preds = %29
  %227 = load i32, i32* %1, align 4
  ret i32 %227
}

declare dso_local i32 @__isoc99_scanf(i8*, ...) #1

; Function Attrs: nounwind
declare dso_local i8* @strcpy(i8*, i8*) #2

; Function Attrs: nounwind readonly
declare dso_local i64 @strlen(i8*) #3

declare dso_local i32 @printf(i8*, ...) #1


!llvm.module.flags = !{!0}
!llvm.ident = !{!1}

!0 = !{i32 1, !"wchar_size", i32 4}
!1 = !{!"clang version 10.0.0-4ubuntu1 "}
